target datalayout = "e-m:e-p270:32:32-p271:32:32-p272:64:64-i64:64-i128:128-f80:128-n8:16:32:64-S128"
target triple = "x86_64-pc-linux-gnu"

@proto_register_bthfp.ett = internal global [7 x ptr] [ptr @ett_bthfp, ptr @ett_bthfp_brsf_hf, ptr @ett_bthfp_brsf_ag, ptr @ett_bthfp_command, ptr @ett_bthfp_parameters, ptr @ett_bthfp_xapl_features, ptr @ett_bthfp_xapl_accessory_info], align 16
@fragments = internal global ptr null, align 8
@.str.307 = private unnamed_addr constant [22 x i8] c"Bluetooth HFP Profile\00", align 1
@.str.308 = private unnamed_addr constant [7 x i8] c"BT HFP\00", align 1
@.str.309 = private unnamed_addr constant [6 x i8] c"bthfp\00", align 1
@proto_bthfp = internal global i32 0, align 4
@bthfp_handle = internal global ptr null, align 8
@.str.310 = private unnamed_addr constant [10 x i8] c"Bluetooth\00", align 1
@.str.311 = private unnamed_addr constant [12 x i8] c"hfp.version\00", align 1
@.str.312 = private unnamed_addr constant [35 x i8] c"Bluetooth Profile HFP version: 1.7\00", align 1
@.str.313 = private unnamed_addr constant [48 x i8] c"Version of profile supported by this dissector.\00", align 1
@.str.314 = private unnamed_addr constant [13 x i8] c"hfp.hfp_role\00", align 1
@.str.315 = private unnamed_addr constant [37 x i8] c"Force treat packets as AG or HS role\00", align 1
@hfp_role = internal global i32 0, align 4

; Function Attrs: null_pointer_is_valid sspstrong uwtable
define hidden void @proto_register_bthfp() #0 {
  %1 = alloca ptr, align 8
  %2 = alloca ptr, align 8
  call void @llvm.lifetime.start.p0(i64 8, ptr %1) #11
  call void @llvm.lifetime.start.p0(i64 8, ptr %2) #11
  %3 = call ptr @wmem_epan_scope()
  %4 = call ptr @wmem_file_scope()
  %5 = call noalias ptr @wmem_tree_new_autoreset(ptr noundef %3, ptr noundef %4)
  store ptr %5, ptr @fragments, align 8
  %6 = call i32 @proto_register_protocol(ptr noundef @.str.307, ptr noundef @.str.308, ptr noundef @.str.309)
  store i32 %6, ptr @proto_bthfp, align 4
  %7 = load i32, ptr @proto_bthfp, align 4
  %8 = call ptr @register_dissector(ptr noundef @.str.309, ptr noundef @dissect_bthfp, i32 noundef %7)
  store ptr %8, ptr @bthfp_handle, align 8
  %9 = load i32, ptr @proto_bthfp, align 4
  call void @proto_register_field_array(i32 noundef %9, ptr noundef @proto_register_bthfp.hf, i32 noundef 146)
  call void @proto_register_subtree_array(ptr noundef @proto_register_bthfp.ett, i32 noundef 7)
  %10 = load i32, ptr @proto_bthfp, align 4
  %11 = call ptr @prefs_register_protocol_subtree(ptr noundef @.str.310, i32 noundef %10, ptr noundef null)
  store ptr %11, ptr %1, align 8
  %12 = load ptr, ptr %1, align 8
  call void @prefs_register_static_text_preference(ptr noundef %12, ptr noundef @.str.311, ptr noundef @.str.312, ptr noundef @.str.313)
  %13 = load ptr, ptr %1, align 8
  call void @prefs_register_enum_preference(ptr noundef %13, ptr noundef @.str.314, ptr noundef @.str.315, ptr noundef @.str.315, ptr noundef @hfp_role, ptr noundef @pref_hfp_role, i1 noundef zeroext true)
  %14 = load i32, ptr @proto_bthfp, align 4
  %15 = call ptr @expert_register_protocol(i32 noundef %14)
  store ptr %15, ptr %2, align 8
  %16 = load ptr, ptr %2, align 8
  call void @expert_register_field_array(ptr noundef %16, ptr noundef @proto_register_bthfp.ei, i32 noundef 33)
  call void @llvm.lifetime.end.p0(i64 8, ptr %2) #11
  call void @llvm.lifetime.end.p0(i64 8, ptr %1) #11
  ret void
}