; Function Attrs: null_pointer_is_valid sspstrong uwtable
define hidden void @proto_register_bthfp() local_unnamed_addr #0 {
  %1 = tail call ptr @wmem_epan_scope()
  %2 = tail call ptr @wmem_file_scope()
  %3 = tail call noalias ptr @wmem_tree_new_autoreset(ptr noundef %1, ptr noundef %2)
  store ptr %3, ptr @fragments, align 8
  %4 = tail call i32 @proto_register_protocol(ptr noundef nonnull @.str.307, ptr noundef nonnull @.str.308, ptr noundef nonnull @.str.309)
  store i32 %4, ptr @proto_bthfp, align 4
  %5 = tail call ptr @register_dissector(ptr noundef nonnull @.str.309, ptr noundef nonnull @dissect_bthfp, i32 noundef %4)
  store ptr %5, ptr @bthfp_handle, align 8
  %6 = load i32, ptr @proto_bthfp, align 4
  tail call void @proto_register_field_array(i32 noundef %6, ptr noundef nonnull @proto_register_bthfp.hf, i32 noundef 146)
  tail call void @proto_register_subtree_array(ptr noundef nonnull @proto_register_bthfp.ett, i32 noundef 7)
  %7 = load i32, ptr @proto_bthfp, align 4
  %8 = tail call ptr @prefs_register_protocol_subtree(ptr noundef nonnull @.str.310, i32 noundef %7, ptr noundef null)
  tail call void @prefs_register_static_text_preference(ptr noundef %8, ptr noundef nonnull @.str.311, ptr noundef nonnull @.str.312, ptr noundef nonnull @.str.313)
  tail call void @prefs_register_enum_preference(ptr noundef %8, ptr noundef nonnull @.str.314, ptr noundef nonnull @.str.315, ptr noundef nonnull @.str.315, ptr noundef nonnull @hfp_role, ptr noundef nonnull @pref_hfp_role, i1 noundef zeroext true)
  %9 = load i32, ptr @proto_bthfp, align 4
  %10 = tail call ptr @expert_register_protocol(i32 noundef %9)
  tail call void @expert_register_field_array(ptr noundef %10, ptr noundef nonnull @proto_register_bthfp.ei, i32 noundef 33)
  ret void
}